; Function Attrs: mustprogress nofree norecurse nosync nounwind willreturn memory(argmem: read) uwtable
define internal ptr @child_next(ptr noundef readonly captures(ret: address, provenance) %0, ptr noundef readnone captures(address) %1) #9 {
  %.not = icmp eq ptr %1, null
  %3 = getelementptr inbounds nuw i8, ptr %0, i64 8
  %4 = load ptr, ptr %3, align 8, !tbaa !20
  %5 = icmp eq ptr %1, %4
  %6 = getelementptr inbounds nuw i8, ptr %0, i64 16
  %spec.select = select i1 %5, ptr %6, ptr null
  %.0 = select i1 %.not, ptr %4, ptr %spec.select
  ret ptr %.0
}